
restrictedshell:     file format elf32-i386


Disassembly of section .init:

08048504 <_init>:
 8048504:	53                   	push   ebx
 8048505:	83 ec 08             	sub    esp,0x8
 8048508:	e8 03 01 00 00       	call   8048610 <__x86.get_pc_thunk.bx>
 804850d:	81 c3 2b 17 00 00    	add    ebx,0x172b
 8048513:	8b 83 fc ff ff ff    	mov    eax,DWORD PTR [ebx-0x4]
 8048519:	85 c0                	test   eax,eax
 804851b:	74 05                	je     8048522 <_init+0x1e>
 804851d:	e8 ae 00 00 00       	call   80485d0 <server_main@plt+0x10>
 8048522:	83 c4 08             	add    esp,0x8
 8048525:	5b                   	pop    ebx
 8048526:	c3                   	ret    

Disassembly of section .plt:

08048530 <strcmp@plt-0x10>:
 8048530:	ff 35 3c 9c 04 08    	push   DWORD PTR ds:0x8049c3c
 8048536:	ff 25 40 9c 04 08    	jmp    DWORD PTR ds:0x8049c40
 804853c:	00 00                	add    BYTE PTR [eax],al
	...

08048540 <strcmp@plt>:
 8048540:	ff 25 44 9c 04 08    	jmp    DWORD PTR ds:0x8049c44
 8048546:	68 00 00 00 00       	push   0x0
 804854b:	e9 e0 ff ff ff       	jmp    8048530 <_init+0x2c>

08048550 <printf@plt>:
 8048550:	ff 25 48 9c 04 08    	jmp    DWORD PTR ds:0x8049c48
 8048556:	68 08 00 00 00       	push   0x8
 804855b:	e9 d0 ff ff ff       	jmp    8048530 <_init+0x2c>

08048560 <fgets@plt>:
 8048560:	ff 25 4c 9c 04 08    	jmp    DWORD PTR ds:0x8049c4c
 8048566:	68 10 00 00 00       	push   0x10
 804856b:	e9 c0 ff ff ff       	jmp    8048530 <_init+0x2c>

08048570 <__stack_chk_fail@plt>:
 8048570:	ff 25 50 9c 04 08    	jmp    DWORD PTR ds:0x8049c50
 8048576:	68 18 00 00 00       	push   0x18
 804857b:	e9 b0 ff ff ff       	jmp    8048530 <_init+0x2c>

08048580 <puts@plt>:
 8048580:	ff 25 54 9c 04 08    	jmp    DWORD PTR ds:0x8049c54
 8048586:	68 20 00 00 00       	push   0x20
 804858b:	e9 a0 ff ff ff       	jmp    8048530 <_init+0x2c>

08048590 <system@plt>:
 8048590:	ff 25 58 9c 04 08    	jmp    DWORD PTR ds:0x8049c58
 8048596:	68 28 00 00 00       	push   0x28
 804859b:	e9 90 ff ff ff       	jmp    8048530 <_init+0x2c>

080485a0 <strchr@plt>:
 80485a0:	ff 25 5c 9c 04 08    	jmp    DWORD PTR ds:0x8049c5c
 80485a6:	68 30 00 00 00       	push   0x30
 80485ab:	e9 80 ff ff ff       	jmp    8048530 <_init+0x2c>

080485b0 <__libc_start_main@plt>:
 80485b0:	ff 25 60 9c 04 08    	jmp    DWORD PTR ds:0x8049c60
 80485b6:	68 38 00 00 00       	push   0x38
 80485bb:	e9 70 ff ff ff       	jmp    8048530 <_init+0x2c>

080485c0 <server_main@plt>:
 80485c0:	ff 25 64 9c 04 08    	jmp    DWORD PTR ds:0x8049c64
 80485c6:	68 40 00 00 00       	push   0x40
 80485cb:	e9 60 ff ff ff       	jmp    8048530 <_init+0x2c>

Disassembly of section .plt.got:

080485d0 <.plt.got>:
 80485d0:	ff 25 34 9c 04 08    	jmp    DWORD PTR ds:0x8049c34
 80485d6:	66 90                	xchg   ax,ax

Disassembly of section .text:

080485e0 <_start>:
 80485e0:	31 ed                	xor    ebp,ebp
 80485e2:	5e                   	pop    esi
 80485e3:	89 e1                	mov    ecx,esp
 80485e5:	83 e4 f0             	and    esp,0xfffffff0
 80485e8:	50                   	push   eax
 80485e9:	54                   	push   esp
 80485ea:	52                   	push   edx
 80485eb:	68 70 89 04 08       	push   0x8048970
 80485f0:	68 10 89 04 08       	push   0x8048910
 80485f5:	51                   	push   ecx
 80485f6:	56                   	push   esi
 80485f7:	68 bc 88 04 08       	push   0x80488bc
 80485fc:	e8 af ff ff ff       	call   80485b0 <__libc_start_main@plt>
 8048601:	f4                   	hlt    
 8048602:	66 90                	xchg   ax,ax
 8048604:	66 90                	xchg   ax,ax
 8048606:	66 90                	xchg   ax,ax
 8048608:	66 90                	xchg   ax,ax
 804860a:	66 90                	xchg   ax,ax
 804860c:	66 90                	xchg   ax,ax
 804860e:	66 90                	xchg   ax,ax

08048610 <__x86.get_pc_thunk.bx>:
 8048610:	8b 1c 24             	mov    ebx,DWORD PTR [esp]
 8048613:	c3                   	ret    
 8048614:	66 90                	xchg   ax,ax
 8048616:	66 90                	xchg   ax,ax
 8048618:	66 90                	xchg   ax,ax
 804861a:	66 90                	xchg   ax,ax
 804861c:	66 90                	xchg   ax,ax
 804861e:	66 90                	xchg   ax,ax

08048620 <deregister_tm_clones>:
 8048620:	b8 83 9c 04 08       	mov    eax,0x8049c83
 8048625:	2d 80 9c 04 08       	sub    eax,0x8049c80
 804862a:	83 f8 06             	cmp    eax,0x6
 804862d:	76 1a                	jbe    8048649 <deregister_tm_clones+0x29>
 804862f:	b8 00 00 00 00       	mov    eax,0x0
 8048634:	85 c0                	test   eax,eax
 8048636:	74 11                	je     8048649 <deregister_tm_clones+0x29>
 8048638:	55                   	push   ebp
 8048639:	89 e5                	mov    ebp,esp
 804863b:	83 ec 14             	sub    esp,0x14
 804863e:	68 80 9c 04 08       	push   0x8049c80
 8048643:	ff d0                	call   eax
 8048645:	83 c4 10             	add    esp,0x10
 8048648:	c9                   	leave  
 8048649:	f3 c3                	repz ret 
 804864b:	90                   	nop
 804864c:	8d 74 26 00          	lea    esi,[esi+eiz*1+0x0]

08048650 <register_tm_clones>:
 8048650:	b8 80 9c 04 08       	mov    eax,0x8049c80
 8048655:	2d 80 9c 04 08       	sub    eax,0x8049c80
 804865a:	c1 f8 02             	sar    eax,0x2
 804865d:	89 c2                	mov    edx,eax
 804865f:	c1 ea 1f             	shr    edx,0x1f
 8048662:	01 d0                	add    eax,edx
 8048664:	d1 f8                	sar    eax,1
 8048666:	74 1b                	je     8048683 <register_tm_clones+0x33>
 8048668:	ba 00 00 00 00       	mov    edx,0x0
 804866d:	85 d2                	test   edx,edx
 804866f:	74 12                	je     8048683 <register_tm_clones+0x33>
 8048671:	55                   	push   ebp
 8048672:	89 e5                	mov    ebp,esp
 8048674:	83 ec 10             	sub    esp,0x10
 8048677:	50                   	push   eax
 8048678:	68 80 9c 04 08       	push   0x8049c80
 804867d:	ff d2                	call   edx
 804867f:	83 c4 10             	add    esp,0x10
 8048682:	c9                   	leave  
 8048683:	f3 c3                	repz ret 
 8048685:	8d 74 26 00          	lea    esi,[esi+eiz*1+0x0]
 8048689:	8d bc 27 00 00 00 00 	lea    edi,[edi+eiz*1+0x0]

08048690 <__do_global_dtors_aux>:
 8048690:	80 3d 84 9c 04 08 00 	cmp    BYTE PTR ds:0x8049c84,0x0
 8048697:	75 13                	jne    80486ac <__do_global_dtors_aux+0x1c>
 8048699:	55                   	push   ebp
 804869a:	89 e5                	mov    ebp,esp
 804869c:	83 ec 08             	sub    esp,0x8
 804869f:	e8 7c ff ff ff       	call   8048620 <deregister_tm_clones>
 80486a4:	c6 05 84 9c 04 08 01 	mov    BYTE PTR ds:0x8049c84,0x1
 80486ab:	c9                   	leave  
 80486ac:	f3 c3                	repz ret 
 80486ae:	66 90                	xchg   ax,ax

080486b0 <frame_dummy>:
 80486b0:	b8 38 9b 04 08       	mov    eax,0x8049b38
 80486b5:	8b 10                	mov    edx,DWORD PTR [eax]
 80486b7:	85 d2                	test   edx,edx
 80486b9:	75 05                	jne    80486c0 <frame_dummy+0x10>
 80486bb:	eb 93                	jmp    8048650 <register_tm_clones>
 80486bd:	8d 76 00             	lea    esi,[esi+0x0]
 80486c0:	ba 00 00 00 00       	mov    edx,0x0
 80486c5:	85 d2                	test   edx,edx
 80486c7:	74 f2                	je     80486bb <frame_dummy+0xb>
 80486c9:	55                   	push   ebp
 80486ca:	89 e5                	mov    ebp,esp
 80486cc:	83 ec 14             	sub    esp,0x14
 80486cf:	50                   	push   eax
 80486d0:	ff d2                	call   edx
 80486d2:	83 c4 10             	add    esp,0x10
 80486d5:	c9                   	leave  
 80486d6:	e9 75 ff ff ff       	jmp    8048650 <register_tm_clones>

080486db <rstrip>:
 80486db:	55                   	push   ebp
 80486dc:	89 e5                	mov    ebp,esp
 80486de:	83 ec 18             	sub    esp,0x18
 80486e1:	83 ec 08             	sub    esp,0x8
 80486e4:	6a 0a                	push   0xa
 80486e6:	ff 75 08             	push   DWORD PTR [ebp+0x8]
 80486e9:	e8 b2 fe ff ff       	call   80485a0 <strchr@plt>
 80486ee:	83 c4 10             	add    esp,0x10
 80486f1:	89 45 f4             	mov    DWORD PTR [ebp-0xc],eax
 80486f4:	83 7d f4 00          	cmp    DWORD PTR [ebp-0xc],0x0
 80486f8:	74 06                	je     8048700 <rstrip+0x25>
 80486fa:	8b 45 f4             	mov    eax,DWORD PTR [ebp-0xc]
 80486fd:	c6 00 00             	mov    BYTE PTR [eax],0x0
 8048700:	90                   	nop
 8048701:	c9                   	leave  
 8048702:	c3                   	ret    

08048703 <handle_connection>:
 8048703:	55                   	push   ebp
 8048704:	89 e5                	mov    ebp,esp
 8048706:	57                   	push   edi
 8048707:	81 ec d4 00 00 00    	sub    esp,0xd4
 804870d:	65 a1 14 00 00 00    	mov    eax,gs:0x14
 8048713:	89 45 f4             	mov    DWORD PTR [ebp-0xc],eax
 8048716:	31 c0                	xor    eax,eax
 8048718:	c7 85 2c ff ff ff 72 	mov    DWORD PTR [ebp-0xd4],0x24687372
 804871f:	73 68 24 
 8048722:	c7 85 30 ff ff ff 20 	mov    DWORD PTR [ebp-0xd0],0x20
 8048729:	00 00 00 
 804872c:	8d 95 34 ff ff ff    	lea    edx,[ebp-0xcc]
 8048732:	b8 00 00 00 00       	mov    eax,0x0
 8048737:	b9 17 00 00 00       	mov    ecx,0x17
 804873c:	89 d7                	mov    edi,edx
 804873e:	f3 ab                	rep stos DWORD PTR es:[edi],eax
 8048740:	83 ec 0c             	sub    esp,0xc
 8048743:	8d 85 2c ff ff ff    	lea    eax,[ebp-0xd4]
 8048749:	50                   	push   eax
 804874a:	e8 01 fe ff ff       	call   8048550 <printf@plt>
 804874f:	83 c4 10             	add    esp,0x10
 8048752:	a1 80 9c 04 08       	mov    eax,ds:0x8049c80
 8048757:	83 ec 04             	sub    esp,0x4
 804875a:	50                   	push   eax
 804875b:	6a 64                	push   0x64
 804875d:	8d 45 90             	lea    eax,[ebp-0x70]
 8048760:	50                   	push   eax
 8048761:	e8 fa fd ff ff       	call   8048560 <fgets@plt>
 8048766:	83 c4 10             	add    esp,0x10
 8048769:	85 c0                	test   eax,eax
 804876b:	0f 84 1d 01 00 00    	je     804888e <handle_connection+0x18b>
 8048771:	83 ec 0c             	sub    esp,0xc
 8048774:	8d 45 90             	lea    eax,[ebp-0x70]
 8048777:	50                   	push   eax
 8048778:	e8 5e ff ff ff       	call   80486db <rstrip>
 804877d:	83 c4 10             	add    esp,0x10
 8048780:	83 ec 08             	sub    esp,0x8
 8048783:	68 90 89 04 08       	push   0x8048990
 8048788:	8d 45 90             	lea    eax,[ebp-0x70]
 804878b:	50                   	push   eax
 804878c:	e8 af fd ff ff       	call   8048540 <strcmp@plt>
 8048791:	83 c4 10             	add    esp,0x10
 8048794:	85 c0                	test   eax,eax
 8048796:	75 12                	jne    80487aa <handle_connection+0xa7>
 8048798:	83 ec 0c             	sub    esp,0xc
 804879b:	68 70 9c 04 08       	push   0x8049c70
 80487a0:	e8 eb fd ff ff       	call   8048590 <system@plt>
 80487a5:	83 c4 10             	add    esp,0x10
 80487a8:	eb 96                	jmp    8048740 <handle_connection+0x3d>
 80487aa:	83 ec 08             	sub    esp,0x8
 80487ad:	68 93 89 04 08       	push   0x8048993
 80487b2:	8d 45 90             	lea    eax,[ebp-0x70]
 80487b5:	50                   	push   eax
 80487b6:	e8 85 fd ff ff       	call   8048540 <strcmp@plt>
 80487bb:	83 c4 10             	add    esp,0x10
 80487be:	85 c0                	test   eax,eax
 80487c0:	75 15                	jne    80487d7 <handle_connection+0xd4>
 80487c2:	83 ec 0c             	sub    esp,0xc
 80487c5:	68 74 9c 04 08       	push   0x8049c74
 80487ca:	e8 c1 fd ff ff       	call   8048590 <system@plt>
 80487cf:	83 c4 10             	add    esp,0x10
 80487d2:	e9 69 ff ff ff       	jmp    8048740 <handle_connection+0x3d>
 80487d7:	83 ec 08             	sub    esp,0x8
 80487da:	68 99 89 04 08       	push   0x8048999
 80487df:	8d 45 90             	lea    eax,[ebp-0x70]
 80487e2:	50                   	push   eax
 80487e3:	e8 58 fd ff ff       	call   8048540 <strcmp@plt>
 80487e8:	83 c4 10             	add    esp,0x10
 80487eb:	85 c0                	test   eax,eax
 80487ed:	75 15                	jne    8048804 <handle_connection+0x101>
 80487ef:	83 ec 0c             	sub    esp,0xc
 80487f2:	68 7d 9c 04 08       	push   0x8049c7d
 80487f7:	e8 94 fd ff ff       	call   8048590 <system@plt>
 80487fc:	83 c4 10             	add    esp,0x10
 80487ff:	e9 3c ff ff ff       	jmp    8048740 <handle_connection+0x3d>
 8048804:	83 ec 08             	sub    esp,0x8
 8048807:	68 9c 89 04 08       	push   0x804899c
 804880c:	8d 45 90             	lea    eax,[ebp-0x70]
 804880f:	50                   	push   eax
 8048810:	e8 2b fd ff ff       	call   8048540 <strcmp@plt>
 8048815:	83 c4 10             	add    esp,0x10
 8048818:	85 c0                	test   eax,eax
 804881a:	75 45                	jne    8048861 <handle_connection+0x15e>
 804881c:	83 ec 0c             	sub    esp,0xc
 804881f:	68 a3 89 04 08       	push   0x80489a3
 8048824:	e8 27 fd ff ff       	call   8048550 <printf@plt>
 8048829:	83 c4 10             	add    esp,0x10
 804882c:	a1 80 9c 04 08       	mov    eax,ds:0x8049c80
 8048831:	83 ec 04             	sub    esp,0x4
 8048834:	50                   	push   eax
 8048835:	6a 64                	push   0x64
 8048837:	8d 85 2c ff ff ff    	lea    eax,[ebp-0xd4]
 804883d:	50                   	push   eax
 804883e:	e8 1d fd ff ff       	call   8048560 <fgets@plt>
 8048843:	83 c4 10             	add    esp,0x10
 8048846:	85 c0                	test   eax,eax
 8048848:	74 47                	je     8048891 <handle_connection+0x18e>
 804884a:	83 ec 0c             	sub    esp,0xc
 804884d:	8d 85 2c ff ff ff    	lea    eax,[ebp-0xd4]
 8048853:	50                   	push   eax
 8048854:	e8 82 fe ff ff       	call   80486db <rstrip>
 8048859:	83 c4 10             	add    esp,0x10
 804885c:	e9 df fe ff ff       	jmp    8048740 <handle_connection+0x3d>
 8048861:	83 ec 08             	sub    esp,0x8
 8048864:	68 bd 89 04 08       	push   0x80489bd
 8048869:	8d 45 90             	lea    eax,[ebp-0x70]
 804886c:	50                   	push   eax
 804886d:	e8 ce fc ff ff       	call   8048540 <strcmp@plt>
 8048872:	83 c4 10             	add    esp,0x10
 8048875:	85 c0                	test   eax,eax
 8048877:	74 1b                	je     8048894 <handle_connection+0x191>
 8048879:	83 ec 0c             	sub    esp,0xc
 804887c:	68 c2 89 04 08       	push   0x80489c2
 8048881:	e8 fa fc ff ff       	call   8048580 <puts@plt>
 8048886:	83 c4 10             	add    esp,0x10
 8048889:	e9 b2 fe ff ff       	jmp    8048740 <handle_connection+0x3d>
 804888e:	90                   	nop
 804888f:	eb 04                	jmp    8048895 <handle_connection+0x192>
 8048891:	90                   	nop
 8048892:	eb 01                	jmp    8048895 <handle_connection+0x192>
 8048894:	90                   	nop
 8048895:	83 ec 0c             	sub    esp,0xc
 8048898:	68 bd 89 04 08       	push   0x80489bd
 804889d:	e8 de fc ff ff       	call   8048580 <puts@plt>
 80488a2:	83 c4 10             	add    esp,0x10
 80488a5:	90                   	nop
 80488a6:	8b 45 f4             	mov    eax,DWORD PTR [ebp-0xc]
 80488a9:	65 33 05 14 00 00 00 	xor    eax,DWORD PTR gs:0x14
 80488b0:	74 05                	je     80488b7 <handle_connection+0x1b4>
 80488b2:	e8 b9 fc ff ff       	call   8048570 <__stack_chk_fail@plt>
 80488b7:	8b 7d fc             	mov    edi,DWORD PTR [ebp-0x4]
 80488ba:	c9                   	leave  
 80488bb:	c3                   	ret    

080488bc <main>:
 80488bc:	8d 4c 24 04          	lea    ecx,[esp+0x4]
 80488c0:	83 e4 f0             	and    esp,0xfffffff0
 80488c3:	ff 71 fc             	push   DWORD PTR [ecx-0x4]
 80488c6:	55                   	push   ebp
 80488c7:	89 e5                	mov    ebp,esp
 80488c9:	51                   	push   ecx
 80488ca:	83 ec 14             	sub    esp,0x14
 80488cd:	89 c8                	mov    eax,ecx
 80488cf:	c7 45 ec d4 89 04 08 	mov    DWORD PTR [ebp-0x14],0x80489d4
 80488d6:	c6 45 f0 01          	mov    BYTE PTR [ebp-0x10],0x1
 80488da:	66 c7 45 f2 5f 1b    	mov    WORD PTR [ebp-0xe],0x1b5f
 80488e0:	c7 45 f4 1e 00 00 00 	mov    DWORD PTR [ebp-0xc],0x1e
 80488e7:	83 ec 08             	sub    esp,0x8
 80488ea:	68 03 87 04 08       	push   0x8048703
 80488ef:	ff 75 f4             	push   DWORD PTR [ebp-0xc]
 80488f2:	ff 75 f0             	push   DWORD PTR [ebp-0x10]
 80488f5:	ff 75 ec             	push   DWORD PTR [ebp-0x14]
 80488f8:	ff 70 04             	push   DWORD PTR [eax+0x4]
 80488fb:	ff 30                	push   DWORD PTR [eax]
 80488fd:	e8 be fc ff ff       	call   80485c0 <server_main@plt>
 8048902:	83 c4 20             	add    esp,0x20
 8048905:	8b 4d fc             	mov    ecx,DWORD PTR [ebp-0x4]
 8048908:	c9                   	leave  
 8048909:	8d 61 fc             	lea    esp,[ecx-0x4]
 804890c:	c3                   	ret    
 804890d:	66 90                	xchg   ax,ax
 804890f:	90                   	nop

08048910 <__libc_csu_init>:
 8048910:	55                   	push   ebp
 8048911:	57                   	push   edi
 8048912:	56                   	push   esi
 8048913:	53                   	push   ebx
 8048914:	e8 f7 fc ff ff       	call   8048610 <__x86.get_pc_thunk.bx>
 8048919:	81 c3 1f 13 00 00    	add    ebx,0x131f
 804891f:	83 ec 0c             	sub    esp,0xc
 8048922:	8b 6c 24 20          	mov    ebp,DWORD PTR [esp+0x20]
 8048926:	8d b3 fc fe ff ff    	lea    esi,[ebx-0x104]
 804892c:	e8 d3 fb ff ff       	call   8048504 <_init>
 8048931:	8d 83 f8 fe ff ff    	lea    eax,[ebx-0x108]
 8048937:	29 c6                	sub    esi,eax
 8048939:	c1 fe 02             	sar    esi,0x2
 804893c:	85 f6                	test   esi,esi
 804893e:	74 25                	je     8048965 <__libc_csu_init+0x55>
 8048940:	31 ff                	xor    edi,edi
 8048942:	8d b6 00 00 00 00    	lea    esi,[esi+0x0]
 8048948:	83 ec 04             	sub    esp,0x4
 804894b:	ff 74 24 2c          	push   DWORD PTR [esp+0x2c]
 804894f:	ff 74 24 2c          	push   DWORD PTR [esp+0x2c]
 8048953:	55                   	push   ebp
 8048954:	ff 94 bb f8 fe ff ff 	call   DWORD PTR [ebx+edi*4-0x108]
 804895b:	83 c7 01             	add    edi,0x1
 804895e:	83 c4 10             	add    esp,0x10
 8048961:	39 f7                	cmp    edi,esi
 8048963:	75 e3                	jne    8048948 <__libc_csu_init+0x38>
 8048965:	83 c4 0c             	add    esp,0xc
 8048968:	5b                   	pop    ebx
 8048969:	5e                   	pop    esi
 804896a:	5f                   	pop    edi
 804896b:	5d                   	pop    ebp
 804896c:	c3                   	ret    
 804896d:	8d 76 00             	lea    esi,[esi+0x0]

08048970 <__libc_csu_fini>:
 8048970:	f3 c3                	repz ret 

Disassembly of section .fini:

08048974 <_fini>:
 8048974:	53                   	push   ebx
 8048975:	83 ec 08             	sub    esp,0x8
 8048978:	e8 93 fc ff ff       	call   8048610 <__x86.get_pc_thunk.bx>
 804897d:	81 c3 bb 12 00 00    	add    ebx,0x12bb
 8048983:	83 c4 08             	add    esp,0x8
 8048986:	5b                   	pop    ebx
 8048987:	c3                   	ret    
